; Function Attrs: nounwind uwtable
define hidden ptr @ps_create_sid_files(ptr noundef readonly captures(none) %0) #0 {
  %2 = alloca [4096 x i8], align 16
  %3 = alloca %struct.stat, align 8
  %4 = alloca ptr, align 8
  call void @llvm.lifetime.start.p0(i64 8, ptr nonnull %4) #15
  %5 = load ptr, ptr %0, align 8, !tbaa !24
  store ptr %5, ptr %4, align 8, !tbaa !24
  %invariant.gep = getelementptr inbounds nuw i8, ptr %2, i64 6
  br label %6

6:                                                ; preds = %55, %1
  %.0 = phi i32 [ 3, %1 ], [ %.1, %55 ]
  %7 = call ptr @php_session_create_id(ptr noundef nonnull %4) #15
  %.not = icmp eq ptr %7, null
  br i1 %.not, label %8, label %11

8:                                                ; preds = %6
  %9 = add nsw i32 %.0, -1
  %10 = icmp slt i32 %.0, 1
  br i1 %10, label %.thread, label %55

11:                                               ; preds = %6
  %12 = load ptr, ptr %4, align 8, !tbaa !24
  %.not15 = icmp eq ptr %12, null
  br i1 %.not15, label %.thread, label %13

13:                                               ; preds = %11
  call void @llvm.lifetime.start.p0(i64 4096, ptr nonnull %2) #15
  call void @llvm.lifetime.start.p0(i64 144, ptr nonnull %3) #15
  call void @llvm.memset.p0.i64(ptr noundef nonnull align 8 dereferenceable(144) %3, i8 0, i64 144, i1 false)
  %14 = getelementptr inbounds nuw i8, ptr %7, i64 16
  %15 = load i64, ptr %14, align 8, !tbaa !22
  %16 = getelementptr inbounds nuw i8, ptr %12, i64 16
  %17 = load i64, ptr %16, align 8, !tbaa !16
  %.not40.i.i = icmp ugt i64 %15, %17
  br i1 %.not40.i.i, label %18, label %ps_files_key_exists.exit.thread

18:                                               ; preds = %13
  %19 = getelementptr inbounds nuw i8, ptr %12, i64 8
  %20 = load ptr, ptr %19, align 8, !tbaa !23
  %21 = getelementptr inbounds nuw i8, ptr %20, i64 16
  %22 = load i64, ptr %21, align 8, !tbaa !22
  %23 = shl i64 %17, 1
  %24 = add i64 %15, -4086
  %25 = add i64 %24, %23
  %26 = add i64 %25, %22
  %27 = icmp ult i64 %26, -4097
  br i1 %27, label %ps_files_key_exists.exit.thread, label %28

28:                                               ; preds = %18
  %29 = getelementptr inbounds nuw i8, ptr %7, i64 24
  %30 = getelementptr inbounds nuw i8, ptr %20, i64 24
  call void @llvm.memcpy.p0.p0.i64(ptr nonnull align 16 %2, ptr nonnull align 8 %30, i64 %22, i1 false)
  %31 = getelementptr inbounds nuw i8, ptr %2, i64 %22
  store i8 47, ptr %31, align 1, !tbaa !4
  %.041.i.i = add i64 %22, 1
  %32 = trunc i64 %17 to i32
  %33 = icmp sgt i32 %32, 0
  br i1 %33, label %.lr.ph.i.i, label %ps_files_key_exists.exit

.lr.ph.i.i:                                       ; preds = %28, %.lr.ph.i.i
  %.045.i.i = phi i64 [ %.0.i.i, %.lr.ph.i.i ], [ %.041.i.i, %28 ]
  %.0.in44.i.i = phi i64 [ %36, %.lr.ph.i.i ], [ %22, %28 ]
  %.03443.i.i = phi i32 [ %39, %.lr.ph.i.i ], [ 0, %28 ]
  %.03542.i.i = phi ptr [ %34, %.lr.ph.i.i ], [ %29, %28 ]
  %34 = getelementptr inbounds nuw i8, ptr %.03542.i.i, i64 1
  %35 = load i8, ptr %.03542.i.i, align 1, !tbaa !4
  %36 = add i64 %.0.in44.i.i, 2
  %37 = getelementptr inbounds nuw i8, ptr %2, i64 %.045.i.i
  store i8 %35, ptr %37, align 1, !tbaa !4
  %38 = getelementptr inbounds nuw i8, ptr %2, i64 %36
  store i8 47, ptr %38, align 1, !tbaa !4
  %39 = add nuw nsw i32 %.03443.i.i, 1
  %.0.i.i = add i64 %.0.in44.i.i, 3
  %exitcond.not.i = icmp eq i32 %39, %32
  br i1 %exitcond.not.i, label %ps_files_key_exists.exit, label %.lr.ph.i.i

ps_files_key_exists.exit.thread:                  ; preds = %18, %13
  call void @llvm.lifetime.end.p0(i64 144, ptr nonnull %3) #15
  call void @llvm.lifetime.end.p0(i64 4096, ptr nonnull %2) #15
  br label %.thread

ps_files_key_exists.exit:                         ; preds = %.lr.ph.i.i, %28
  %.0.in.lcssa.i.i = phi i64 [ %22, %28 ], [ %36, %.lr.ph.i.i ]
  %.0.lcssa.i.i = phi i64 [ %.041.i.i, %28 ], [ %.0.i.i, %.lr.ph.i.i ]
  %40 = getelementptr inbounds nuw i8, ptr %2, i64 %.0.lcssa.i.i
  call void @llvm.memcpy.p0.p0.i64(ptr noundef nonnull align 1 dereferenceable(5) %40, ptr noundef nonnull align 1 dereferenceable(5) @.str.12, i64 5, i1 false)
  %gep = getelementptr i8, ptr %invariant.gep, i64 %.0.in.lcssa.i.i
  call void @llvm.memcpy.p0.p0.i64(ptr nonnull align 1 %gep, ptr nonnull readonly align 8 %29, i64 %15, i1 false)
  %41 = getelementptr i8, ptr %gep, i64 %15
  store i8 0, ptr %41, align 1, !tbaa !4
  %42 = call i32 @stat(ptr noundef nonnull %2, ptr noundef nonnull %3) #15
  %.not5.i.not = icmp eq i32 %42, 0
  call void @llvm.lifetime.end.p0(i64 144, ptr nonnull %3) #15
  call void @llvm.lifetime.end.p0(i64 4096, ptr nonnull %2) #15
  br i1 %.not5.i.not, label %43, label %55

43:                                               ; preds = %ps_files_key_exists.exit
  %44 = getelementptr inbounds nuw i8, ptr %7, i64 4
  %45 = load i32, ptr %44, align 4, !tbaa !4
  %46 = and i32 %45, 64
  %.not.i = icmp eq i32 %46, 0
  br i1 %.not.i, label %47, label %zend_string_release_ex.exit

47:                                               ; preds = %43
  %48 = load i32, ptr %7, align 4, !tbaa !18
  %49 = icmp ne i32 %48, 0
  call void @llvm.assume(i1 %49)
  %50 = add i32 %48, -1
  store i32 %50, ptr %7, align 4, !tbaa !18
  %51 = icmp eq i32 %50, 0
  br i1 %51, label %52, label %zend_string_release_ex.exit

52:                                               ; preds = %47
  call void @_efree(ptr noundef nonnull %7) #15
  br label %zend_string_release_ex.exit

zend_string_release_ex.exit:                      ; preds = %43, %47, %52
  %53 = add nsw i32 %.0, -1
  %54 = icmp slt i32 %.0, 1
  br i1 %54, label %.thread, label %55

55:                                               ; preds = %ps_files_key_exists.exit, %zend_string_release_ex.exit, %8
  %.08 = phi ptr [ null, %zend_string_release_ex.exit ], [ %7, %ps_files_key_exists.exit ], [ null, %8 ]
  %.1 = phi i32 [ %53, %zend_string_release_ex.exit ], [ %.0, %ps_files_key_exists.exit ], [ %9, %8 ]
  %.not16 = icmp eq ptr %.08, null
  br i1 %.not16, label %6, label %.thread

.thread:                                          ; preds = %11, %55, %zend_string_release_ex.exit, %8, %ps_files_key_exists.exit.thread
  %.09 = phi ptr [ %7, %ps_files_key_exists.exit.thread ], [ %7, %11 ], [ %.08, %55 ], [ null, %zend_string_release_ex.exit ], [ null, %8 ]
  call void @llvm.lifetime.end.p0(i64 8, ptr nonnull %4) #15
  ret ptr %.09
}